target datalayout = "e-m:e-p270:32:32-p271:32:32-p272:64:64-i64:64-i128:128-f80:128-n8:16:32:64-S128"
target triple = "x86_64-unknown-linux-gnu"

%"class.v8::IndirectHandleBase" = type { ptr }
%"class.node::MemoryRetainer" = type { ptr }
%"class.node::AsyncWrap" = type { %"class.node::BaseObject", i32, i8, double, double }
%"class.node::BaseObject" = type { %"class.node::MemoryRetainer", %"class.v8::Global.259", ptr, ptr }
%"class.v8::Global.259" = type { %"class.v8::PersistentBase.260" }
%"class.v8::PersistentBase.260" = type { %"class.v8::IndirectHandleBase" }

; Function Attrs: mustprogress nounwind uwtable
define linkonce_odr dso_local noundef i32 @_ZNK4node9AsyncWrap13provider_typeEv(ptr noundef nonnull align 8 dereferenceable(56) %this) #4 comdat align 2 {
entry:
  %this.addr = alloca ptr, align 8
  store ptr %this, ptr %this.addr, align 8
  %this1 = load ptr, ptr %this.addr, align 8
  %provider_type_ = getelementptr inbounds %"class.node::AsyncWrap", ptr %this1, i32 0, i32 1
  %0 = load i32, ptr %provider_type_, align 8
  ret i32 %0
}

; Function Attrs: mustprogress nounwind uwtable
define dso_local noundef ptr @_ZNK4node9AsyncWrap14MemoryInfoNameEv(ptr noundef nonnull align 8 dereferenceable(56) %this) unnamed_addr #4 align 2 {
entry:
  %this.addr = alloca ptr, align 8
  store ptr %this, ptr %this.addr, align 8
  %this1 = load ptr, ptr %this.addr, align 8
  %call = call noundef i32 @_ZNK4node9AsyncWrap13provider_typeEv(ptr noundef nonnull align 8 dereferenceable(56) %this1)
  %idxprom = zext i32 %call to i64
  %arrayidx = getelementptr inbounds [64 x ptr], ptr @_ZN4nodeL14provider_namesE, i64 0, i64 %idxprom
  %0 = load ptr, ptr %arrayidx, align 8
  ret ptr %0
}