; Function Attrs: mustprogress nofree norecurse nosync nounwind willreturn memory(argmem: read) uwtable
define dso_local noundef ptr @_ZNK4node9AsyncWrap14MemoryInfoNameEv(ptr nocapture noundef nonnull readonly align 8 dereferenceable(56) %this) unnamed_addr #6 align 2 {
entry:
  %provider_type_.i = getelementptr inbounds i8, ptr %this, i64 32
  %0 = load i32, ptr %provider_type_.i, align 8
  %idxprom = zext i32 %0 to i64
  %arrayidx = getelementptr inbounds [64 x ptr], ptr @_ZN4nodeL14provider_namesE, i64 0, i64 %idxprom
  %1 = load ptr, ptr %arrayidx, align 8
  ret ptr %1
}